target datalayout = "e-m:e-p270:32:32-p271:32:32-p272:64:64-i64:64-i128:128-f80:128-n8:16:32:64-S128"
target triple = "x86_64-pc-linux-gnu"

%struct._zval_struct = type { %union._zend_value, %union.anon, %union.anon.3 }
%union._zend_value = type { i64 }
%union.anon = type { i32 }
%union.anon.3 = type { i32 }
%struct._zend_array = type { %struct._zend_refcounted_h, %union.anon.5, i32, %union.anon.7, i32, i32, i32, i32, i64, ptr }
%struct._zend_refcounted_h = type { i32, %union.anon.4 }
%union.anon.4 = type { i32 }
%union.anon.5 = type { i32 }
%union.anon.7 = type { ptr }
%struct.anon.1 = type { i8, i8, %union.anon.2 }
%union.anon.2 = type { i16 }
%struct._Bucket = type { %struct._zval_struct, i64, ptr }

; Function Attrs: nounwind uwtable
define internal i32 @ct_eval_add_array_unpack(ptr noundef %0, ptr noundef %1) #0 {
  %3 = alloca ptr, align 8
  %4 = alloca ptr, align 8
  %5 = alloca ptr, align 8
  %6 = alloca ptr, align 8
  %7 = alloca ptr, align 8
  %8 = alloca ptr, align 8
  %9 = alloca i32, align 4
  %10 = alloca ptr, align 8
  %11 = alloca ptr, align 8
  %12 = alloca ptr, align 8
  %13 = alloca ptr, align 8
  %14 = alloca ptr, align 8
  %15 = alloca ptr, align 8
  %16 = alloca ptr, align 8
  %17 = alloca ptr, align 8
  %18 = alloca ptr, align 8
  %19 = alloca i64, align 8
  %20 = alloca ptr, align 8
  %21 = alloca i32, align 4
  %22 = alloca i64, align 8
  %23 = alloca ptr, align 8
  %24 = alloca i32, align 4
  %25 = alloca ptr, align 8
  %26 = alloca ptr, align 8
  store ptr %0, ptr %10, align 8
  store ptr %1, ptr %11, align 8
  %27 = load ptr, ptr %11, align 8
  store ptr %27, ptr %7, align 8
  %28 = load ptr, ptr %7, align 8
  %29 = getelementptr inbounds %struct._zval_struct, ptr %28, i32 0, i32 1
  %30 = load i8, ptr %29, align 8
  %31 = zext i8 %30 to i32
  %32 = icmp ne i32 %31, 7
  br i1 %32, label %33, label %34

33:                                               ; preds = %2
  store i32 -1, ptr %9, align 4
  br label %191

34:                                               ; preds = %2
  br label %35

35:                                               ; preds = %34
  %36 = load ptr, ptr %10, align 8
  store ptr %36, ptr %14, align 8
  %37 = load ptr, ptr %14, align 8
  %38 = getelementptr inbounds %struct._zval_struct, ptr %37, i32 0, i32 0
  %39 = load ptr, ptr %38, align 8
  store ptr %39, ptr %15, align 8
  %40 = load ptr, ptr %15, align 8
  %41 = getelementptr inbounds %struct._zend_array, ptr %40, i32 0, i32 0
  store ptr %41, ptr %4, align 8
  %42 = load ptr, ptr %4, align 8
  %43 = load i32, ptr %42, align 4
  %44 = icmp ugt i32 %43, 1
  %45 = xor i1 %44, true
  %46 = xor i1 %45, true
  %47 = zext i1 %46 to i32
  %48 = sext i32 %47 to i64
  %49 = icmp ne i64 %48, 0
  br i1 %49, label %50, label %73

50:                                               ; preds = %35
  br label %51

51:                                               ; preds = %50
  %52 = load ptr, ptr %15, align 8
  %53 = call ptr @zend_array_dup(ptr noundef %52)
  store ptr %53, ptr %16, align 8
  %54 = load ptr, ptr %14, align 8
  store ptr %54, ptr %17, align 8
  %55 = load ptr, ptr %16, align 8
  %56 = load ptr, ptr %17, align 8
  %57 = getelementptr inbounds %struct._zval_struct, ptr %56, i32 0, i32 0
  store ptr %55, ptr %57, align 8
  %58 = load ptr, ptr %17, align 8
  %59 = getelementptr inbounds %struct._zval_struct, ptr %58, i32 0, i32 1
  store i32 775, ptr %59, align 8
  br label %60

60:                                               ; preds = %51
  %61 = load ptr, ptr %15, align 8
  %62 = getelementptr inbounds %struct._zend_array, ptr %61, i32 0, i32 0
  store ptr %62, ptr %3, align 8
  %63 = load ptr, ptr %3, align 8
  %64 = getelementptr inbounds %struct._zend_refcounted_h, ptr %63, i32 0, i32 1
  %65 = load i32, ptr %64, align 4
  %66 = and i32 %65, 64
  %67 = icmp ne i32 %66, 0
  br i1 %67, label %72, label %68

68:                                               ; preds = %60
  %69 = load ptr, ptr %3, align 8
  %70 = load i32, ptr %69, align 4
  %71 = add i32 %70, -1
  store i32 %71, ptr %69, align 4
  br label %72

72:                                               ; preds = %68, %60
  br label %73

73:                                               ; preds = %72, %35
  br label %74

74:                                               ; preds = %73
  br label %75

75:                                               ; preds = %74
  %76 = load ptr, ptr %11, align 8
  %77 = getelementptr inbounds %struct._zval_struct, ptr %76, i32 0, i32 0
  %78 = load ptr, ptr %77, align 8
  store ptr %78, ptr %18, align 8
  store ptr null, ptr %20, align 8
  store i32 0, ptr %21, align 4
  %79 = load ptr, ptr %18, align 8
  %80 = getelementptr inbounds %struct._zend_array, ptr %79, i32 0, i32 1
  %81 = load i32, ptr %80, align 8
  %82 = xor i32 %81, -1
  %83 = and i32 %82, 4
  %84 = zext i32 %83 to i64
  %85 = mul i64 %84, 4
  %86 = add i64 16, %85
  store i64 %86, ptr %22, align 8
  %87 = load ptr, ptr %18, align 8
  %88 = getelementptr inbounds %struct._zend_array, ptr %87, i32 0, i32 3
  %89 = load ptr, ptr %88, align 8
  %90 = load i32, ptr %21, align 4
  %91 = zext i32 %90 to i64
  %92 = load i64, ptr %22, align 8
  %93 = mul i64 %91, %92
  %94 = getelementptr inbounds i8, ptr %89, i64 %93
  store ptr %94, ptr %23, align 8
  %95 = load ptr, ptr %18, align 8
  %96 = getelementptr inbounds %struct._zend_array, ptr %95, i32 0, i32 4
  %97 = load i32, ptr %96, align 8
  %98 = load i32, ptr %21, align 4
  %99 = sub i32 %97, %98
  store i32 %99, ptr %24, align 4
  br label %100

100:                                              ; preds = %186, %75
  %101 = load i32, ptr %24, align 4
  %102 = icmp ugt i32 %101, 0
  br i1 %102, label %103, label %189

103:                                              ; preds = %100
  %104 = load ptr, ptr %23, align 8
  store ptr %104, ptr %25, align 8
  %105 = load ptr, ptr %18, align 8
  %106 = getelementptr inbounds %struct._zend_array, ptr %105, i32 0, i32 1
  %107 = load i32, ptr %106, align 8
  %108 = and i32 %107, 4
  %109 = icmp ne i32 %108, 0
  br i1 %109, label %110, label %117

110:                                              ; preds = %103
  %111 = load ptr, ptr %23, align 8
  %112 = getelementptr inbounds %struct._zval_struct, ptr %111, i32 1
  store ptr %112, ptr %23, align 8
  %113 = load i32, ptr %21, align 4
  %114 = zext i32 %113 to i64
  store i64 %114, ptr %19, align 8
  %115 = load i32, ptr %21, align 4
  %116 = add i32 %115, 1
  store i32 %116, ptr %21, align 4
  br label %128

117:                                              ; preds = %103
  %118 = load ptr, ptr %23, align 8
  store ptr %118, ptr %26, align 8
  %119 = load ptr, ptr %26, align 8
  %120 = getelementptr inbounds %struct._Bucket, ptr %119, i64 1
  %121 = getelementptr inbounds %struct._Bucket, ptr %120, i32 0, i32 0
  store ptr %121, ptr %23, align 8
  %122 = load ptr, ptr %26, align 8
  %123 = getelementptr inbounds %struct._Bucket, ptr %122, i32 0, i32 1
  %124 = load i64, ptr %123, align 8
  store i64 %124, ptr %19, align 8
  %125 = load ptr, ptr %26, align 8
  %126 = getelementptr inbounds %struct._Bucket, ptr %125, i32 0, i32 2
  %127 = load ptr, ptr %126, align 8
  store ptr %127, ptr %20, align 8
  br label %128

128:                                              ; preds = %117, %110
  %129 = load ptr, ptr %25, align 8
  store ptr %129, ptr %8, align 8
  %130 = load ptr, ptr %8, align 8
  %131 = getelementptr inbounds %struct._zval_struct, ptr %130, i32 0, i32 1
  %132 = load i8, ptr %131, align 8
  %133 = zext i8 %132 to i32
  %134 = icmp eq i32 %133, 0
  %135 = xor i1 %134, true
  %136 = xor i1 %135, true
  %137 = zext i1 %136 to i32
  %138 = sext i32 %137 to i64
  %139 = icmp ne i64 %138, 0
  br i1 %139, label %140, label %141

140:                                              ; preds = %128
  br label %186

141:                                              ; preds = %128
  %142 = load ptr, ptr %20, align 8
  store ptr %142, ptr %12, align 8
  %143 = load ptr, ptr %25, align 8
  store ptr %143, ptr %13, align 8
  %144 = load ptr, ptr %12, align 8
  %145 = icmp ne ptr %144, null
  br i1 %145, label %146, label %153

146:                                              ; preds = %141
  %147 = load ptr, ptr %10, align 8
  %148 = getelementptr inbounds %struct._zval_struct, ptr %147, i32 0, i32 0
  %149 = load ptr, ptr %148, align 8
  %150 = load ptr, ptr %12, align 8
  %151 = load ptr, ptr %13, align 8
  %152 = call ptr @zend_hash_update(ptr noundef %149, ptr noundef %150, ptr noundef %151)
  store ptr %152, ptr %13, align 8
  br label %159

153:                                              ; preds = %141
  %154 = load ptr, ptr %10, align 8
  %155 = getelementptr inbounds %struct._zval_struct, ptr %154, i32 0, i32 0
  %156 = load ptr, ptr %155, align 8
  %157 = load ptr, ptr %13, align 8
  %158 = call ptr @zend_hash_next_index_insert(ptr noundef %156, ptr noundef %157)
  store ptr %158, ptr %13, align 8
  br label %159

159:                                              ; preds = %153, %146
  %160 = load ptr, ptr %13, align 8
  %161 = icmp ne ptr %160, null
  br i1 %161, label %163, label %162

162:                                              ; preds = %159
  store i32 -1, ptr %9, align 4
  br label %191

163:                                              ; preds = %159
  br label %164

164:                                              ; preds = %163
  %165 = load ptr, ptr %13, align 8
  %166 = getelementptr inbounds %struct._zval_struct, ptr %165, i32 0, i32 1
  %167 = getelementptr inbounds %struct.anon.1, ptr %166, i32 0, i32 1
  %168 = load i8, ptr %167, align 1
  %169 = zext i8 %168 to i32
  %170 = icmp ne i32 %169, 0
  br i1 %170, label %171, label %184

171:                                              ; preds = %164
  %172 = load ptr, ptr %13, align 8
  store ptr %172, ptr %6, align 8
  %173 = load ptr, ptr %6, align 8
  %174 = getelementptr inbounds %struct._zval_struct, ptr %173, i32 0, i32 1
  %175 = getelementptr inbounds %struct.anon.1, ptr %174, i32 0, i32 1
  %176 = load i8, ptr %175, align 1
  %177 = zext i8 %176 to i32
  %178 = icmp ne i32 %177, 0
  call void @llvm.assume(i1 %178)
  %179 = load ptr, ptr %6, align 8
  %180 = load ptr, ptr %179, align 8
  store ptr %180, ptr %5, align 8
  %181 = load ptr, ptr %5, align 8
  %182 = load i32, ptr %181, align 4
  %183 = add i32 %182, 1
  store i32 %183, ptr %181, align 4
  br label %184

184:                                              ; preds = %171, %164
  br label %185

185:                                              ; preds = %184
  br label %186

186:                                              ; preds = %185, %140
  %187 = load i32, ptr %24, align 4
  %188 = add i32 %187, -1
  store i32 %188, ptr %24, align 4
  br label %100

189:                                              ; preds = %100
  br label %190

190:                                              ; preds = %189
  store i32 0, ptr %9, align 4
  br label %191

191:                                              ; preds = %190, %162, %33
  %192 = load i32, ptr %9, align 4
  ret i32 %192
}