; Function Attrs: nounwind uwtable
define internal fastcc noundef i32 @ct_eval_add_array_unpack(ptr nocapture noundef %0, ptr nocapture noundef readonly %1) unnamed_addr #0 {
  %3 = getelementptr inbounds i8, ptr %1, i64 8
  %4 = load i8, ptr %3, align 8
  %.not = icmp eq i8 %4, 7
  br i1 %.not, label %5, label %.loopexit

5:                                                ; preds = %2
  %6 = load ptr, ptr %0, align 8
  %7 = load i32, ptr %6, align 4
  %8 = icmp ugt i32 %7, 1
  br i1 %8, label %9, label %18

9:                                                ; preds = %5
  %10 = tail call ptr @zend_array_dup(ptr noundef nonnull %6) #13
  store ptr %10, ptr %0, align 8
  %11 = getelementptr inbounds i8, ptr %0, i64 8
  store i32 775, ptr %11, align 8
  %12 = getelementptr inbounds i8, ptr %6, i64 4
  %13 = load i32, ptr %12, align 4
  %14 = and i32 %13, 64
  %.not55 = icmp eq i32 %14, 0
  br i1 %.not55, label %15, label %18

15:                                               ; preds = %9
  %16 = load i32, ptr %6, align 4
  %17 = add i32 %16, -1
  store i32 %17, ptr %6, align 4
  br label %18

18:                                               ; preds = %9, %15, %5
  %19 = load ptr, ptr %1, align 8
  %20 = getelementptr inbounds i8, ptr %19, i64 8
  %21 = getelementptr inbounds i8, ptr %19, i64 24
  %22 = load i32, ptr %21, align 8
  %.not5661 = icmp eq i32 %22, 0
  br i1 %.not5661, label %.loopexit, label %.lr.ph.preheader

.lr.ph.preheader:                                 ; preds = %18
  %23 = getelementptr inbounds i8, ptr %19, i64 16
  %24 = load ptr, ptr %23, align 8
  br label %.lr.ph

.lr.ph:                                           ; preds = %.lr.ph.preheader, %51
  %.04965 = phi i32 [ %52, %51 ], [ %22, %.lr.ph.preheader ]
  %.05064 = phi ptr [ %.1, %51 ], [ %24, %.lr.ph.preheader ]
  %.05362 = phi ptr [ %.154, %51 ], [ null, %.lr.ph.preheader ]
  %25 = load i32, ptr %20, align 8
  %26 = and i32 %25, 4
  %.not57 = icmp eq i32 %26, 0
  br i1 %.not57, label %29, label %27

27:                                               ; preds = %.lr.ph
  %28 = getelementptr inbounds i8, ptr %.05064, i64 16
  br label %33

29:                                               ; preds = %.lr.ph
  %30 = getelementptr inbounds i8, ptr %.05064, i64 32
  %31 = getelementptr inbounds i8, ptr %.05064, i64 24
  %32 = load ptr, ptr %31, align 8
  br label %33

33:                                               ; preds = %29, %27
  %.154 = phi ptr [ %.05362, %27 ], [ %32, %29 ]
  %.1 = phi ptr [ %28, %27 ], [ %30, %29 ]
  %34 = getelementptr inbounds i8, ptr %.05064, i64 8
  %35 = load i8, ptr %34, align 8
  %36 = icmp eq i8 %35, 0
  br i1 %36, label %51, label %37

37:                                               ; preds = %33
  %.not58 = icmp eq ptr %.154, null
  %38 = load ptr, ptr %0, align 8
  br i1 %.not58, label %41, label %39

39:                                               ; preds = %37
  %40 = tail call ptr @zend_hash_update(ptr noundef %38, ptr noundef nonnull %.154, ptr noundef nonnull %.05064) #13
  br label %43

41:                                               ; preds = %37
  %42 = tail call ptr @zend_hash_next_index_insert(ptr noundef %38, ptr noundef nonnull %.05064) #13
  br label %43

43:                                               ; preds = %41, %39
  %.048 = phi ptr [ %40, %39 ], [ %42, %41 ]
  %.not59 = icmp eq ptr %.048, null
  br i1 %.not59, label %.loopexit, label %44

44:                                               ; preds = %43
  %45 = getelementptr inbounds i8, ptr %.048, i64 9
  %46 = load i8, ptr %45, align 1
  %.not60 = icmp eq i8 %46, 0
  br i1 %.not60, label %51, label %47

47:                                               ; preds = %44
  %48 = load ptr, ptr %.048, align 8
  %49 = load i32, ptr %48, align 4
  %50 = add i32 %49, 1
  store i32 %50, ptr %48, align 4
  br label %51

51:                                               ; preds = %47, %44, %33
  %52 = add i32 %.04965, -1
  %.not56 = icmp eq i32 %52, 0
  br i1 %.not56, label %.loopexit, label %.lr.ph

.loopexit:                                        ; preds = %43, %51, %18, %2
  %.0 = phi i32 [ -1, %2 ], [ 0, %18 ], [ -1, %43 ], [ 0, %51 ]
  ret i32 %.0
}